target datalayout = "e-m:e-p270:32:32-p271:32:32-p272:64:64-i64:64-i128:128-f80:128-n8:16:32:64-S128"
target triple = "x86_64-pc-linux-gnu"

%struct._sapi_module_struct = type { ptr, ptr, ptr, ptr, ptr, ptr, ptr, ptr, ptr, ptr, ptr, ptr, ptr, ptr, ptr, ptr, ptr, ptr, ptr, ptr, ptr, ptr, ptr, ptr, i32, i32, ptr, ptr, ptr, ptr, ptr, ptr, i32, ptr, ptr, ptr }
%struct._sapi_globals_struct = type { ptr, %struct.sapi_request_info, %struct.sapi_headers_struct, i64, i8, i8, %struct.stat, ptr, ptr, ptr, i64, i32, i8, double, %struct._zend_array, %struct._zval_struct, %struct._zend_fcall_info_cache, %struct.sapi_request_parse_body_context }
%struct.sapi_request_info = type { ptr, ptr, ptr, i64, ptr, ptr, ptr, ptr, i8, i8, i8, ptr, ptr, ptr, ptr, ptr, ptr, ptr, i32, i32, ptr, i32 }
%struct.sapi_headers_struct = type { %struct._zend_llist, i32, i8, ptr, ptr }
%struct._zend_llist = type { ptr, ptr, i64, i64, ptr, i8, ptr }
%struct.stat = type { i64, i64, i64, i32, i32, i32, i32, i64, i64, i64, i64, %struct.timespec, %struct.timespec, %struct.timespec, [3 x i64] }
%struct.timespec = type { i64, i64 }
%struct._zend_array = type { %struct._zend_refcounted_h, %union.anon.0, i32, %union.anon.1, i32, i32, i32, i32, i64, ptr }
%struct._zend_refcounted_h = type { i32, %union.anon }
%union.anon = type { i32 }
%union.anon.0 = type { i32 }
%union.anon.1 = type { ptr }
%struct._zval_struct = type { %union._zend_value, %union.anon.3, %union.anon.6 }
%union._zend_value = type { i64 }
%union.anon.3 = type { i32 }
%union.anon.6 = type { i32 }
%struct._zend_fcall_info_cache = type { ptr, ptr, ptr, ptr, ptr }
%struct.sapi_request_parse_body_context = type { i8, [5 x %struct.anon.7] }
%struct.anon.7 = type { i8, i64 }

@sapi_module = dso_local global %struct._sapi_module_struct zeroinitializer, align 8
@sapi_globals = dso_local global %struct._sapi_globals_struct zeroinitializer, align 8

; Function Attrs: nounwind uwtable
define dso_local ptr @sapi_get_stat() #0 {
  %1 = alloca ptr, align 8
  %2 = load ptr, ptr getelementptr inbounds nuw (%struct._sapi_module_struct, ptr @sapi_module, i32 0, i32 8), align 8, !tbaa !169
  %3 = icmp ne ptr %2, null
  br i1 %3, label %4, label %7

4:                                                ; preds = %0
  %5 = load ptr, ptr getelementptr inbounds nuw (%struct._sapi_module_struct, ptr @sapi_module, i32 0, i32 8), align 8, !tbaa !169
  %6 = call ptr %5()
  store ptr %6, ptr %1, align 8
  br label %16

7:                                                ; preds = %0
  %8 = load ptr, ptr getelementptr inbounds nuw (%struct.sapi_request_info, ptr getelementptr inbounds nuw (%struct._sapi_globals_struct, ptr @sapi_globals, i32 0, i32 1), i32 0, i32 4), align 8, !tbaa !170
  %9 = icmp ne ptr %8, null
  br i1 %9, label %10, label %14

10:                                               ; preds = %7
  %11 = load ptr, ptr getelementptr inbounds nuw (%struct.sapi_request_info, ptr getelementptr inbounds nuw (%struct._sapi_globals_struct, ptr @sapi_globals, i32 0, i32 1), i32 0, i32 4), align 8, !tbaa !170
  %12 = call i32 @stat(ptr noundef %11, ptr noundef getelementptr inbounds nuw (%struct._sapi_globals_struct, ptr @sapi_globals, i32 0, i32 6)) #15
  %13 = icmp eq i32 %12, -1
  br i1 %13, label %14, label %15

14:                                               ; preds = %10, %7
  store ptr null, ptr %1, align 8
  br label %16

15:                                               ; preds = %10
  store ptr getelementptr inbounds nuw (%struct._sapi_globals_struct, ptr @sapi_globals, i32 0, i32 6), ptr %1, align 8
  br label %16

16:                                               ; preds = %15, %14, %4
  %17 = load ptr, ptr %1, align 8
  ret ptr %17
}