; Function Attrs: nounwind uwtable
define dso_local ptr @sapi_get_stat() local_unnamed_addr #0 {
  %1 = load ptr, ptr getelementptr inbounds nuw (i8, ptr @sapi_module, i64 64), align 8, !tbaa !151
  %.not = icmp eq ptr %1, null
  br i1 %.not, label %4, label %2

2:                                                ; preds = %0
  %3 = tail call ptr %1() #19
  br label %9

4:                                                ; preds = %0
  %5 = load ptr, ptr getelementptr inbounds nuw (i8, ptr @sapi_globals, i64 40), align 8, !tbaa !152
  %.not3 = icmp eq ptr %5, null
  br i1 %.not3, label %9, label %6

6:                                                ; preds = %4
  %7 = tail call i32 @stat(ptr noundef nonnull %5, ptr noundef nonnull getelementptr inbounds nuw (i8, ptr @sapi_globals, i64 256)) #19
  %8 = icmp eq i32 %7, -1
  %spec.select = select i1 %8, ptr null, ptr getelementptr inbounds nuw (i8, ptr @sapi_globals, i64 256)
  br label %9

9:                                                ; preds = %6, %4, %2
  %.0 = phi ptr [ %3, %2 ], [ null, %4 ], [ %spec.select, %6 ]
  ret ptr %.0
}